; Function Attrs: mustprogress nofree norecurse nosync nounwind willreturn memory(read, inaccessiblemem: none) uwtable
define hidden noundef zeroext i1 @_ZNK3smt17theory_array_base6sel_eqclEPNS_5enodeES3_(ptr nocapture noundef nonnull readnone align 1 dereferenceable(1) %this, ptr nocapture noundef readonly %n1, ptr nocapture noundef readonly %n2) local_unnamed_addr #5 align 2 {
entry:
  %m_suppress_args.i = getelementptr inbounds i8, ptr %n1, i64 44
  %bf.load.i = load i16, ptr %m_suppress_args.i, align 4
  %0 = and i16 %bf.load.i, 8
  %tobool.not.i = icmp eq i16 %0, 0
  br i1 %tobool.not.i, label %_ZNK3smt5enode12get_num_argsEv.exit, label %return

_ZNK3smt5enode12get_num_argsEv.exit:              ; preds = %entry
  %1 = load ptr, ptr %n1, align 8
  %m_num_args.i.i = getelementptr inbounds i8, ptr %1, i64 24
  %2 = load i32, ptr %m_num_args.i.i, align 8
  %m_args.i = getelementptr inbounds i8, ptr %n1, i64 112
  %cmp9 = icmp ult i32 %2, 2
  br i1 %cmp9, label %return, label %for.body.lr.ph

for.body.lr.ph:                                   ; preds = %_ZNK3smt5enode12get_num_argsEv.exit
  %m_args.i5 = getelementptr inbounds i8, ptr %n2, i64 112
  %3 = zext i32 %2 to i64
  %arrayidx.i16 = getelementptr inbounds i8, ptr %n1, i64 120
  %4 = load ptr, ptr %arrayidx.i16, align 8
  %m_root.i17 = getelementptr inbounds i8, ptr %4, i64 8
  %5 = load ptr, ptr %m_root.i17, align 8
  %arrayidx.i718 = getelementptr inbounds i8, ptr %n2, i64 120
  %6 = load ptr, ptr %arrayidx.i718, align 8
  %m_root.i819 = getelementptr inbounds i8, ptr %6, i64 8
  %7 = load ptr, ptr %m_root.i819, align 8
  %cmp6.not20 = icmp eq ptr %5, %7
  br i1 %cmp6.not20, label %for.cond, label %return

for.cond:                                         ; preds = %for.body.lr.ph, %for.body
  %indvars.iv21 = phi i64 [ %indvars.iv.next, %for.body ], [ 1, %for.body.lr.ph ]
  %indvars.iv.next = add nuw nsw i64 %indvars.iv21, 1
  %exitcond = icmp eq i64 %indvars.iv.next, %3
  br i1 %exitcond, label %return.loopexit, label %for.body, !llvm.loop !50

for.body:                                         ; preds = %for.cond
  %arrayidx.i = getelementptr inbounds [0 x ptr], ptr %m_args.i, i64 0, i64 %indvars.iv.next
  %8 = load ptr, ptr %arrayidx.i, align 8
  %m_root.i = getelementptr inbounds i8, ptr %8, i64 8
  %9 = load ptr, ptr %m_root.i, align 8
  %arrayidx.i7 = getelementptr inbounds [0 x ptr], ptr %m_args.i5, i64 0, i64 %indvars.iv.next
  %10 = load ptr, ptr %arrayidx.i7, align 8
  %m_root.i8 = getelementptr inbounds i8, ptr %10, i64 8
  %11 = load ptr, ptr %m_root.i8, align 8
  %cmp6.not = icmp eq ptr %9, %11
  br i1 %cmp6.not, label %for.cond, label %return.loopexit, !llvm.loop !50

return.loopexit:                                  ; preds = %for.body, %for.cond
  %cmp.le = icmp uge i64 %indvars.iv.next, %3
  br label %return

return:                                           ; preds = %return.loopexit, %for.body.lr.ph, %entry, %_ZNK3smt5enode12get_num_argsEv.exit
  %cmp.lcssa = phi i1 [ true, %_ZNK3smt5enode12get_num_argsEv.exit ], [ true, %entry ], [ false, %for.body.lr.ph ], [ %cmp.le, %return.loopexit ]
  ret i1 %cmp.lcssa
}